target datalayout = "e-m:e-p270:32:32-p271:32:32-p272:64:64-i64:64-i128:128-f80:128-n8:16:32:64-S128"
target triple = "x86_64-pc-linux-gnu"

%struct.DdLevelQueue = type { ptr, ptr, ptr, ptr, i32, i32, i32, i32, i32, i32 }

; Function Attrs: nounwind uwtable
define ptr @cuddLevelQueueInit(i32 noundef %0, i32 noundef %1, i32 noundef %2) #0 {
  %4 = alloca ptr, align 8
  %5 = alloca i32, align 4
  %6 = alloca i32, align 4
  %7 = alloca i32, align 4
  %8 = alloca ptr, align 8
  %9 = alloca i32, align 4
  store i32 %0, ptr %5, align 4
  store i32 %1, ptr %6, align 4
  store i32 %2, ptr %7, align 4
  %10 = call noalias ptr @malloc(i64 noundef 56) #5
  store ptr %10, ptr %8, align 8
  %11 = load ptr, ptr %8, align 8
  %12 = icmp eq ptr %11, null
  br i1 %12, label %13, label %14

13:                                               ; preds = %3
  store ptr null, ptr %4, align 8
  br label %114

14:                                               ; preds = %3
  %15 = load i32, ptr %5, align 4
  %16 = sext i32 %15 to i64
  %17 = mul i64 8, %16
  %18 = call noalias ptr @malloc(i64 noundef %17) #5
  %19 = load ptr, ptr %8, align 8
  %20 = getelementptr inbounds %struct.DdLevelQueue, ptr %19, i32 0, i32 1
  store ptr %18, ptr %20, align 8
  %21 = load ptr, ptr %8, align 8
  %22 = getelementptr inbounds %struct.DdLevelQueue, ptr %21, i32 0, i32 1
  %23 = load ptr, ptr %22, align 8
  %24 = icmp eq ptr %23, null
  br i1 %24, label %25, label %32

25:                                               ; preds = %14
  %26 = load ptr, ptr %8, align 8
  %27 = icmp ne ptr %26, null
  br i1 %27, label %28, label %30

28:                                               ; preds = %25
  %29 = load ptr, ptr %8, align 8
  call void @free(ptr noundef %29) #6
  store ptr null, ptr %8, align 8
  br label %31

30:                                               ; preds = %25
  br label %31

31:                                               ; preds = %30, %28
  store ptr null, ptr %4, align 8
  br label %114

32:                                               ; preds = %14
  %33 = load i32, ptr %7, align 4
  %34 = icmp slt i32 %33, 2
  br i1 %34, label %35, label %36

35:                                               ; preds = %32
  store i32 2, ptr %7, align 4
  br label %36

36:                                               ; preds = %35, %32
  %37 = load i32, ptr %7, align 4
  %38 = call i32 @cuddComputeFloorLog2(i32 noundef %37)
  store i32 %38, ptr %9, align 4
  %39 = load i32, ptr %9, align 4
  %40 = shl i32 1, %39
  %41 = load ptr, ptr %8, align 8
  %42 = getelementptr inbounds %struct.DdLevelQueue, ptr %41, i32 0, i32 8
  store i32 %40, ptr %42, align 8
  %43 = load i32, ptr %9, align 4
  %44 = sext i32 %43 to i64
  %45 = sub i64 32, %44
  %46 = trunc i64 %45 to i32
  %47 = load ptr, ptr %8, align 8
  %48 = getelementptr inbounds %struct.DdLevelQueue, ptr %47, i32 0, i32 9
  store i32 %46, ptr %48, align 4
  %49 = load ptr, ptr %8, align 8
  %50 = getelementptr inbounds %struct.DdLevelQueue, ptr %49, i32 0, i32 8
  %51 = load i32, ptr %50, align 8
  %52 = sext i32 %51 to i64
  %53 = mul i64 8, %52
  %54 = call noalias ptr @malloc(i64 noundef %53) #5
  %55 = load ptr, ptr %8, align 8
  %56 = getelementptr inbounds %struct.DdLevelQueue, ptr %55, i32 0, i32 3
  store ptr %54, ptr %56, align 8
  %57 = load ptr, ptr %8, align 8
  %58 = getelementptr inbounds %struct.DdLevelQueue, ptr %57, i32 0, i32 3
  %59 = load ptr, ptr %58, align 8
  %60 = icmp eq ptr %59, null
  br i1 %60, label %61, label %80

61:                                               ; preds = %36
  %62 = load ptr, ptr %8, align 8
  %63 = getelementptr inbounds %struct.DdLevelQueue, ptr %62, i32 0, i32 1
  %64 = load ptr, ptr %63, align 8
  %65 = icmp ne ptr %64, null
  br i1 %65, label %66, label %72

66:                                               ; preds = %61
  %67 = load ptr, ptr %8, align 8
  %68 = getelementptr inbounds %struct.DdLevelQueue, ptr %67, i32 0, i32 1
  %69 = load ptr, ptr %68, align 8
  call void @free(ptr noundef %69) #6
  %70 = load ptr, ptr %8, align 8
  %71 = getelementptr inbounds %struct.DdLevelQueue, ptr %70, i32 0, i32 1
  store ptr null, ptr %71, align 8
  br label %73

72:                                               ; preds = %61
  br label %73

73:                                               ; preds = %72, %66
  %74 = load ptr, ptr %8, align 8
  %75 = icmp ne ptr %74, null
  br i1 %75, label %76, label %78

76:                                               ; preds = %73
  %77 = load ptr, ptr %8, align 8
  call void @free(ptr noundef %77) #6
  store ptr null, ptr %8, align 8
  br label %79

78:                                               ; preds = %73
  br label %79

79:                                               ; preds = %78, %76
  store ptr null, ptr %4, align 8
  br label %114

80:                                               ; preds = %36
  %81 = load ptr, ptr %8, align 8
  %82 = getelementptr inbounds %struct.DdLevelQueue, ptr %81, i32 0, i32 1
  %83 = load ptr, ptr %82, align 8
  %84 = load i32, ptr %5, align 4
  %85 = sext i32 %84 to i64
  %86 = mul i64 %85, 8
  call void @llvm.memset.p0.i64(ptr align 8 %83, i8 0, i64 %86, i1 false)
  %87 = load ptr, ptr %8, align 8
  %88 = getelementptr inbounds %struct.DdLevelQueue, ptr %87, i32 0, i32 3
  %89 = load ptr, ptr %88, align 8
  %90 = load ptr, ptr %8, align 8
  %91 = getelementptr inbounds %struct.DdLevelQueue, ptr %90, i32 0, i32 8
  %92 = load i32, ptr %91, align 8
  %93 = sext i32 %92 to i64
  %94 = mul i64 %93, 8
  call void @llvm.memset.p0.i64(ptr align 8 %89, i8 0, i64 %94, i1 false)
  %95 = load ptr, ptr %8, align 8
  %96 = getelementptr inbounds %struct.DdLevelQueue, ptr %95, i32 0, i32 0
  store ptr null, ptr %96, align 8
  %97 = load ptr, ptr %8, align 8
  %98 = getelementptr inbounds %struct.DdLevelQueue, ptr %97, i32 0, i32 2
  store ptr null, ptr %98, align 8
  %99 = load i32, ptr %5, align 4
  %100 = load ptr, ptr %8, align 8
  %101 = getelementptr inbounds %struct.DdLevelQueue, ptr %100, i32 0, i32 4
  store i32 %99, ptr %101, align 8
  %102 = load i32, ptr %6, align 4
  %103 = load ptr, ptr %8, align 8
  %104 = getelementptr inbounds %struct.DdLevelQueue, ptr %103, i32 0, i32 5
  store i32 %102, ptr %104, align 4
  %105 = load ptr, ptr %8, align 8
  %106 = getelementptr inbounds %struct.DdLevelQueue, ptr %105, i32 0, i32 6
  store i32 0, ptr %106, align 8
  %107 = load ptr, ptr %8, align 8
  %108 = getelementptr inbounds %struct.DdLevelQueue, ptr %107, i32 0, i32 8
  %109 = load i32, ptr %108, align 8
  %110 = mul nsw i32 %109, 4
  %111 = load ptr, ptr %8, align 8
  %112 = getelementptr inbounds %struct.DdLevelQueue, ptr %111, i32 0, i32 7
  store i32 %110, ptr %112, align 4
  %113 = load ptr, ptr %8, align 8
  store ptr %113, ptr %4, align 8
  br label %114

114:                                              ; preds = %80, %79, %31, %13
  %115 = load ptr, ptr %4, align 8
  ret ptr %115
}