; Function Attrs: nounwind uwtable
define noalias noundef ptr @cuddLevelQueueInit(i32 noundef %0, i32 noundef %1, i32 noundef %2) local_unnamed_addr #0 {
  %4 = tail call noalias dereferenceable_or_null(56) ptr @malloc(i64 noundef 56) #8
  %5 = icmp eq ptr %4, null
  br i1 %5, label %31, label %6

6:                                                ; preds = %3
  %7 = sext i32 %0 to i64
  %8 = shl nsw i64 %7, 3
  %9 = tail call noalias ptr @malloc(i64 noundef %8) #8
  %10 = getelementptr inbounds nuw i8, ptr %4, i64 8
  store ptr %9, ptr %10, align 8
  %11 = icmp eq ptr %9, null
  br i1 %11, label %12, label %13

12:                                               ; preds = %6
  tail call void @free(ptr noundef nonnull %4) #9
  br label %31

13:                                               ; preds = %6
  %spec.store.select = tail call i32 @llvm.smax.i32(i32 %2, i32 2)
  %14 = tail call i32 @cuddComputeFloorLog2(i32 noundef %spec.store.select) #9
  %15 = shl nuw i32 1, %14
  %16 = getelementptr inbounds nuw i8, ptr %4, i64 48
  store i32 %15, ptr %16, align 8
  %17 = sub i32 32, %14
  %18 = getelementptr inbounds nuw i8, ptr %4, i64 52
  store i32 %17, ptr %18, align 4
  %19 = sext i32 %15 to i64
  %20 = shl nsw i64 %19, 3
  %calloc = tail call ptr @calloc(i64 1, i64 %20)
  %21 = getelementptr inbounds nuw i8, ptr %4, i64 24
  store ptr %calloc, ptr %21, align 8
  %22 = icmp eq ptr %calloc, null
  br i1 %22, label %23, label %24

23:                                               ; preds = %13
  tail call void @free(ptr noundef nonnull %9) #9
  tail call void @free(ptr noundef nonnull %4) #9
  br label %31

24:                                               ; preds = %13
  tail call void @llvm.memset.p0.i64(ptr nonnull align 8 %9, i8 0, i64 %8, i1 false)
  store ptr null, ptr %4, align 8
  %25 = getelementptr inbounds nuw i8, ptr %4, i64 16
  store ptr null, ptr %25, align 8
  %26 = getelementptr inbounds nuw i8, ptr %4, i64 32
  store i32 %0, ptr %26, align 8
  %27 = getelementptr inbounds nuw i8, ptr %4, i64 36
  store i32 %1, ptr %27, align 4
  %28 = getelementptr inbounds nuw i8, ptr %4, i64 40
  store i32 0, ptr %28, align 8
  %29 = shl i32 4, %14
  %30 = getelementptr inbounds nuw i8, ptr %4, i64 44
  store i32 %29, ptr %30, align 4
  br label %31

31:                                               ; preds = %3, %24, %23, %12
  %.0 = phi ptr [ null, %12 ], [ null, %23 ], [ %4, %24 ], [ null, %3 ]
  ret ptr %.0
}